target datalayout = "e-m:e-p270:32:32-p271:32:32-p272:64:64-i64:64-i128:128-f80:128-n8:16:32:64-S128"
target triple = "x86_64-pc-linux-gnu"

; Function Attrs: alwaysinline nounwind willreturn memory(none) uwtable
define internal i32 @av_clip_c(i32 noundef %0, i32 noundef %1, i32 noundef %2) #7 {
  %4 = alloca i32, align 4
  %5 = alloca i32, align 4
  %6 = alloca i32, align 4
  %7 = alloca i32, align 4
  store i32 %0, ptr %5, align 4, !tbaa !24
  store i32 %1, ptr %6, align 4, !tbaa !24
  store i32 %2, ptr %7, align 4, !tbaa !24
  %8 = load i32, ptr %5, align 4, !tbaa !24
  %9 = load i32, ptr %6, align 4, !tbaa !24
  %10 = icmp slt i32 %8, %9
  br i1 %10, label %11, label %13

11:                                               ; preds = %3
  %12 = load i32, ptr %6, align 4, !tbaa !24
  store i32 %12, ptr %4, align 4
  br label %21

13:                                               ; preds = %3
  %14 = load i32, ptr %5, align 4, !tbaa !24
  %15 = load i32, ptr %7, align 4, !tbaa !24
  %16 = icmp sgt i32 %14, %15
  br i1 %16, label %17, label %19

17:                                               ; preds = %13
  %18 = load i32, ptr %7, align 4, !tbaa !24
  store i32 %18, ptr %4, align 4
  br label %21

19:                                               ; preds = %13
  %20 = load i32, ptr %5, align 4, !tbaa !24
  store i32 %20, ptr %4, align 4
  br label %21

21:                                               ; preds = %19, %17, %11
  %22 = load i32, ptr %4, align 4
  ret i32 %22
}

; Function Attrs: nounwind uwtable
define internal void @filter16_scale(ptr noundef %0, ptr noundef %1, i32 noundef %2, i32 noundef %3) #2 {
  %5 = alloca ptr, align 8
  %6 = alloca ptr, align 8
  %7 = alloca i32, align 4
  %8 = alloca i32, align 4
  %9 = alloca ptr, align 8
  %10 = alloca i32, align 4
  store ptr %0, ptr %5, align 8, !tbaa !88
  store ptr %1, ptr %6, align 8, !tbaa !66
  store i32 %2, ptr %7, align 4, !tbaa !24
  store i32 %3, ptr %8, align 4, !tbaa !24
  call void @llvm.lifetime.start.p0(i64 8, ptr %9) #10
  %11 = load ptr, ptr %5, align 8, !tbaa !88
  store ptr %11, ptr %9, align 8, !tbaa !100
  call void @llvm.lifetime.start.p0(i64 4, ptr %10) #10
  %12 = load i32, ptr %7, align 4, !tbaa !24
  %13 = sdiv i32 %12, 2
  store i32 %13, ptr %7, align 4, !tbaa !24
  store i32 0, ptr %10, align 4, !tbaa !24
  br label %14

14:                                               ; preds = %26, %4
  %15 = load i32, ptr %10, align 4, !tbaa !24
  %16 = load i32, ptr %7, align 4, !tbaa !24
  %17 = icmp slt i32 %15, %16
  br i1 %17, label %18, label %33

18:                                               ; preds = %14
  %19 = load ptr, ptr %6, align 8, !tbaa !66
  %20 = load i32, ptr %19, align 4, !tbaa !24
  %21 = load i32, ptr %8, align 4, !tbaa !24
  %22 = call i32 @av_clip_c(i32 noundef %20, i32 noundef 0, i32 noundef %21) #12
  %23 = ashr i32 %22, 15
  %24 = trunc i32 %23 to i16
  %25 = load ptr, ptr %9, align 8, !tbaa !100
  store i16 %24, ptr %25, align 2, !tbaa !102
  br label %26

26:                                               ; preds = %18
  %27 = load i32, ptr %10, align 4, !tbaa !24
  %28 = add nsw i32 %27, 1
  store i32 %28, ptr %10, align 4, !tbaa !24
  %29 = load ptr, ptr %9, align 8, !tbaa !100
  %30 = getelementptr inbounds nuw i16, ptr %29, i32 1
  store ptr %30, ptr %9, align 8, !tbaa !100
  %31 = load ptr, ptr %6, align 8, !tbaa !66
  %32 = getelementptr inbounds nuw i32, ptr %31, i32 1
  store ptr %32, ptr %6, align 8, !tbaa !66
  br label %14, !llvm.loop !113

33:                                               ; preds = %14
  call void @llvm.lifetime.end.p0(i64 4, ptr %10) #10
  call void @llvm.lifetime.end.p0(i64 8, ptr %9) #10
  ret void
}