; Function Attrs: nofree norecurse nosync nounwind memory(argmem: readwrite) uwtable
define internal void @filter16_scale(ptr noundef writeonly captures(none) %0, ptr noundef readonly captures(none) %1, i32 noundef %2, i32 noundef %3) #7 {
  %5 = sdiv i32 %2, 2
  %6 = icmp sgt i32 %2, 1
  br i1 %6, label %.lr.ph, label %._crit_edge

.lr.ph:                                           ; preds = %4, %.lr.ph
  %.013 = phi i32 [ %12, %.lr.ph ], [ 0, %4 ]
  %.0912 = phi ptr [ %13, %.lr.ph ], [ %0, %4 ]
  %.01011 = phi ptr [ %14, %.lr.ph ], [ %1, %4 ]
  %7 = load i32, ptr %.01011, align 4, !tbaa !58
  %8 = icmp slt i32 %7, 0
  %..i = tail call i32 @llvm.smin.i32(i32 %7, i32 %3)
  %9 = lshr i32 %..i, 15
  %10 = trunc i32 %9 to i16
  %11 = select i1 %8, i16 0, i16 %10
  store i16 %11, ptr %.0912, align 2, !tbaa !87
  %12 = add nuw nsw i32 %.013, 1
  %13 = getelementptr inbounds nuw i8, ptr %.0912, i64 2
  %14 = getelementptr inbounds nuw i8, ptr %.01011, i64 4
  %exitcond.not = icmp eq i32 %12, %5
  br i1 %exitcond.not, label %._crit_edge, label %.lr.ph, !llvm.loop !98

._crit_edge:                                      ; preds = %.lr.ph, %4
  ret void
}